target datalayout = "e-m:e-p270:32:32-p271:32:32-p272:64:64-i64:64-i128:128-f80:128-n8:16:32:64-S128"
target triple = "x86_64-pc-linux-gnu"

; Function Attrs: mustprogress nounwind uwtable
define internal noundef i32 @_ZL23hb_ot_old_tag_to_scriptj(i32 noundef %0) #1 {
  %2 = alloca i32, align 4
  %3 = alloca i32, align 4
  store i32 %0, ptr %3, align 4
  %4 = load i32, ptr %3, align 4
  %5 = icmp eq i32 %4, 1145457748
  br i1 %5, label %6, label %7

6:                                                ; preds = %1
  store i32 0, ptr %2, align 4
  br label %34

7:                                                ; preds = %1
  %8 = load i32, ptr %3, align 4
  %9 = icmp eq i32 %8, 1835103336
  br i1 %9, label %10, label %11

10:                                               ; preds = %7
  store i32 1517122664, ptr %2, align 4
  br label %34

11:                                               ; preds = %7
  %12 = load i32, ptr %3, align 4
  %13 = and i32 %12, 65280
  %14 = icmp eq i32 %13, 8192
  br i1 %14, label %15, label %21

15:                                               ; preds = %11
  %16 = load i32, ptr %3, align 4
  %17 = lshr i32 %16, 8
  %18 = and i32 %17, 65280
  %19 = load i32, ptr %3, align 4
  %20 = or i32 %19, %18
  store i32 %20, ptr %3, align 4
  br label %21

21:                                               ; preds = %15, %11
  %22 = load i32, ptr %3, align 4
  %23 = and i32 %22, 255
  %24 = icmp eq i32 %23, 32
  br i1 %24, label %25, label %31

25:                                               ; preds = %21
  %26 = load i32, ptr %3, align 4
  %27 = lshr i32 %26, 8
  %28 = and i32 %27, 255
  %29 = load i32, ptr %3, align 4
  %30 = or i32 %29, %28
  store i32 %30, ptr %3, align 4
  br label %31

31:                                               ; preds = %25, %21
  %32 = load i32, ptr %3, align 4
  %33 = and i32 %32, -536870913
  store i32 %33, ptr %2, align 4
  br label %34

34:                                               ; preds = %31, %10, %6
  %35 = load i32, ptr %2, align 4
  ret i32 %35
}

; Function Attrs: mustprogress nounwind uwtable
define internal noundef i32 @_ZL23hb_ot_new_tag_to_scriptj(i32 noundef %0) #1 {
  %2 = alloca i32, align 4
  %3 = alloca i32, align 4
  store i32 %0, ptr %3, align 4
  %4 = load i32, ptr %3, align 4
  switch i32 %4, label %15 [
    i32 1651402546, label %5
    i32 1684370994, label %6
    i32 1735029298, label %7
    i32 1735750194, label %8
    i32 1802396722, label %9
    i32 1835822386, label %10
    i32 1869773106, label %11
    i32 1953328178, label %12
    i32 1952803890, label %13
    i32 1836674354, label %14
  ]

5:                                                ; preds = %1
  store i32 1113943655, ptr %2, align 4
  br label %16

6:                                                ; preds = %1
  store i32 1147500129, ptr %2, align 4
  br label %16

7:                                                ; preds = %1
  store i32 1198877298, ptr %2, align 4
  br label %16

8:                                                ; preds = %1
  store i32 1198879349, ptr %2, align 4
  br label %16

9:                                                ; preds = %1
  store i32 1265525857, ptr %2, align 4
  br label %16

10:                                               ; preds = %1
  store i32 1298954605, ptr %2, align 4
  br label %16

11:                                               ; preds = %1
  store i32 1332902241, ptr %2, align 4
  br label %16

12:                                               ; preds = %1
  store i32 1415671148, ptr %2, align 4
  br label %16

13:                                               ; preds = %1
  store i32 1415933045, ptr %2, align 4
  br label %16

14:                                               ; preds = %1
  store i32 1299803506, ptr %2, align 4
  br label %16

15:                                               ; preds = %1
  store i32 1517976186, ptr %2, align 4
  br label %16

16:                                               ; preds = %15, %14, %13, %12, %11, %10, %9, %8, %7, %6, %5
  %17 = load i32, ptr %2, align 4
  ret i32 %17
}

; Function Attrs: mustprogress nounwind uwtable
define internal noundef zeroext i8 @_ZL5TOHEXh(i8 noundef zeroext %0) #1 {
  %2 = alloca i8, align 1
  store i8 %0, ptr %2, align 1
  %3 = load i8, ptr %2, align 1
  %4 = zext i8 %3 to i32
  %5 = and i32 %4, 15
  %6 = icmp sle i32 %5, 9
  br i1 %6, label %7, label %12

7:                                                ; preds = %1
  %8 = load i8, ptr %2, align 1
  %9 = zext i8 %8 to i32
  %10 = and i32 %9, 15
  %11 = add nsw i32 %10, 48
  br label %18

12:                                               ; preds = %1
  %13 = load i8, ptr %2, align 1
  %14 = zext i8 %13 to i32
  %15 = and i32 %14, 15
  %16 = add nsw i32 %15, 97
  %17 = sub nsw i32 %16, 10
  br label %18

18:                                               ; preds = %12, %7
  %19 = phi i32 [ %11, %7 ], [ %17, %12 ]
  %20 = trunc i32 %19 to i8
  ret i8 %20
}

; Function Attrs: mustprogress nounwind uwtable
define internal noundef ptr @_ZL9hb_memcpyPvPKvm(ptr noalias noundef %0, ptr noalias noundef %1, i64 noundef %2) #1 {
  %4 = alloca ptr, align 8
  %5 = alloca ptr, align 8
  %6 = alloca ptr, align 8
  %7 = alloca i64, align 8
  store ptr %0, ptr %5, align 8
  store ptr %1, ptr %6, align 8
  store i64 %2, ptr %7, align 8
  %8 = load i64, ptr %7, align 8
  %9 = icmp ne i64 %8, 0
  br i1 %9, label %12, label %10

10:                                               ; preds = %3
  %11 = load ptr, ptr %5, align 8
  store ptr %11, ptr %4, align 8
  br label %16

12:                                               ; preds = %3
  %13 = load ptr, ptr %5, align 8
  %14 = load ptr, ptr %6, align 8
  %15 = load i64, ptr %7, align 8
  call void @llvm.memcpy.p0.p0.i64(ptr align 1 %13, ptr align 1 %14, i64 %15, i1 false)
  store ptr %13, ptr %4, align 8
  br label %16

16:                                               ; preds = %12, %10
  %17 = load ptr, ptr %4, align 8
  ret ptr %17
}

; Function Attrs: mustprogress uwtable
define hidden i32 @hb_ot_tag_to_script(i32 noundef %0) #0 {
  %2 = alloca i32, align 4
  %3 = alloca i32, align 4
  %4 = alloca i8, align 1
  store i32 %0, ptr %3, align 4
  %5 = load i32, ptr %3, align 4
  %6 = and i32 %5, 255
  %7 = trunc i32 %6 to i8
  store i8 %7, ptr %4, align 1
  %8 = load i8, ptr %4, align 1
  %9 = zext i8 %8 to i32
  %10 = icmp eq i32 %9, 50
  br i1 %10, label %15, label %11

11:                                               ; preds = %1
  %12 = load i8, ptr %4, align 1
  %13 = zext i8 %12 to i32
  %14 = icmp eq i32 %13, 51
  br i1 %14, label %15, label %19

15:                                               ; preds = %11, %1
  %16 = load i32, ptr %3, align 4
  %17 = and i32 %16, -206
  %18 = call noundef i32 @_ZL23hb_ot_new_tag_to_scriptj(i32 noundef %17)
  store i32 %18, ptr %2, align 4
  br label %22

19:                                               ; preds = %11
  %20 = load i32, ptr %3, align 4
  %21 = call noundef i32 @_ZL23hb_ot_old_tag_to_scriptj(i32 noundef %20)
  store i32 %21, ptr %2, align 4
  br label %22

22:                                               ; preds = %19, %15
  %23 = load i32, ptr %2, align 4
  ret i32 %23
}

; Function Attrs: mustprogress uwtable
define hidden void @hb_ot_tags_to_script_and_language(i32 noundef %0, i32 noundef %1, ptr noundef %2, ptr noundef %3) #0 {
  %5 = alloca i32, align 4
  %6 = alloca i32, align 4
  %7 = alloca ptr, align 8
  %8 = alloca ptr, align 8
  %9 = alloca i32, align 4
  %10 = alloca i32, align 4
  %11 = alloca [1 x i32], align 4
  %12 = alloca ptr, align 8
  %13 = alloca ptr, align 8
  %14 = alloca i64, align 8
  %15 = alloca i32, align 4
  store i32 %0, ptr %5, align 4
  store i32 %1, ptr %6, align 4
  store ptr %2, ptr %7, align 8
  store ptr %3, ptr %8, align 8
  %16 = load i32, ptr %5, align 4
  %17 = call i32 @hb_ot_tag_to_script(i32 noundef %16)
  store i32 %17, ptr %9, align 4
  %18 = load ptr, ptr %7, align 8
  %19 = icmp ne ptr %18, null
  br i1 %19, label %20, label %23

20:                                               ; preds = %4
  %21 = load i32, ptr %9, align 4
  %22 = load ptr, ptr %7, align 8
  store i32 %21, ptr %22, align 4
  br label %23

23:                                               ; preds = %20, %4
  %24 = load ptr, ptr %8, align 8
  %25 = icmp ne ptr %24, null
  br i1 %25, label %26, label %127

26:                                               ; preds = %23
  store i32 1, ptr %10, align 4
  %27 = load i32, ptr %9, align 4
  %28 = getelementptr inbounds [1 x i32], ptr %11, i64 0, i64 0
  call void @hb_ot_tags_from_script_and_language(i32 noundef %27, ptr noundef null, ptr noundef %10, ptr noundef %28, ptr noundef null, ptr noundef null)
  %29 = load i32, ptr %6, align 4
  %30 = call ptr @hb_ot_tag_to_language(i32 noundef %29)
  %31 = load ptr, ptr %8, align 8
  store ptr %30, ptr %31, align 8
  %32 = load i32, ptr %10, align 4
  %33 = icmp eq i32 %32, 0
  br i1 %33, label %39, label %34

34:                                               ; preds = %26
  %35 = getelementptr inbounds [1 x i32], ptr %11, i64 0, i64 0
  %36 = load i32, ptr %35, align 4
  %37 = load i32, ptr %5, align 4
  %38 = icmp ne i32 %36, %37
  br i1 %38, label %39, label %126

39:                                               ; preds = %34, %26
  %40 = load ptr, ptr %8, align 8
  %41 = load ptr, ptr %40, align 8
  %42 = call ptr @hb_language_to_string(ptr noundef %41)
  store ptr %42, ptr %13, align 8
  %43 = load ptr, ptr %13, align 8
  %44 = call i64 @strlen(ptr noundef %43) #8
  store i64 %44, ptr %14, align 8
  %45 = load i64, ptr %14, align 8
  %46 = add i64 %45, 16
  %47 = call noalias ptr @malloc(i64 noundef %46) #10
  store ptr %47, ptr %12, align 8
  %48 = load ptr, ptr %12, align 8
  %49 = icmp ne ptr %48, null
  br i1 %49, label %52, label %50

50:                                               ; preds = %39
  %51 = load ptr, ptr %8, align 8
  store ptr null, ptr %51, align 8
  br label %125

52:                                               ; preds = %39
  %53 = load ptr, ptr %12, align 8
  %54 = load ptr, ptr %13, align 8
  %55 = load i64, ptr %14, align 8
  %56 = call noundef ptr @_ZL9hb_memcpyPvPKvm(ptr noundef %53, ptr noundef %54, i64 noundef %55)
  %57 = load ptr, ptr %13, align 8
  %58 = getelementptr inbounds i8, ptr %57, i64 0
  %59 = load i8, ptr %58, align 1
  %60 = sext i8 %59 to i32
  %61 = icmp ne i32 %60, 120
  br i1 %61, label %68, label %62

62:                                               ; preds = %52
  %63 = load ptr, ptr %13, align 8
  %64 = getelementptr inbounds i8, ptr %63, i64 1
  %65 = load i8, ptr %64, align 1
  %66 = sext i8 %65 to i32
  %67 = icmp ne i32 %66, 45
  br i1 %67, label %68, label %77

68:                                               ; preds = %62, %52
  %69 = load ptr, ptr %12, align 8
  %70 = load i64, ptr %14, align 8
  %71 = add i64 %70, 1
  store i64 %71, ptr %14, align 8
  %72 = getelementptr inbounds i8, ptr %69, i64 %70
  store i8 45, ptr %72, align 1
  %73 = load ptr, ptr %12, align 8
  %74 = load i64, ptr %14, align 8
  %75 = add i64 %74, 1
  store i64 %75, ptr %14, align 8
  %76 = getelementptr inbounds i8, ptr %73, i64 %74
  store i8 120, ptr %76, align 1
  br label %77

77:                                               ; preds = %68, %62
  %78 = load ptr, ptr %12, align 8
  %79 = load i64, ptr %14, align 8
  %80 = add i64 %79, 1
  store i64 %80, ptr %14, align 8
  %81 = getelementptr inbounds i8, ptr %78, i64 %79
  store i8 45, ptr %81, align 1
  %82 = load ptr, ptr %12, align 8
  %83 = load i64, ptr %14, align 8
  %84 = add i64 %83, 1
  store i64 %84, ptr %14, align 8
  %85 = getelementptr inbounds i8, ptr %82, i64 %83
  store i8 104, ptr %85, align 1
  %86 = load ptr, ptr %12, align 8
  %87 = load i64, ptr %14, align 8
  %88 = add i64 %87, 1
  store i64 %88, ptr %14, align 8
  %89 = getelementptr inbounds i8, ptr %86, i64 %87
  store i8 98, ptr %89, align 1
  %90 = load ptr, ptr %12, align 8
  %91 = load i64, ptr %14, align 8
  %92 = add i64 %91, 1
  store i64 %92, ptr %14, align 8
  %93 = getelementptr inbounds i8, ptr %90, i64 %91
  store i8 115, ptr %93, align 1
  %94 = load ptr, ptr %12, align 8
  %95 = load i64, ptr %14, align 8
  %96 = add i64 %95, 1
  store i64 %96, ptr %14, align 8
  %97 = getelementptr inbounds i8, ptr %94, i64 %95
  store i8 99, ptr %97, align 1
  %98 = load ptr, ptr %12, align 8
  %99 = load i64, ptr %14, align 8
  %100 = add i64 %99, 1
  store i64 %100, ptr %14, align 8
  %101 = getelementptr inbounds i8, ptr %98, i64 %99
  store i8 45, ptr %101, align 1
  store i32 28, ptr %15, align 4
  br label %102

102:                                              ; preds = %115, %77
  %103 = load i32, ptr %15, align 4
  %104 = icmp sge i32 %103, 0
  br i1 %104, label %105, label %118

105:                                              ; preds = %102
  %106 = load i32, ptr %5, align 4
  %107 = load i32, ptr %15, align 4
  %108 = lshr i32 %106, %107
  %109 = trunc i32 %108 to i8
  %110 = call noundef zeroext i8 @_ZL5TOHEXh(i8 noundef zeroext %109)
  %111 = load ptr, ptr %12, align 8
  %112 = load i64, ptr %14, align 8
  %113 = add i64 %112, 1
  store i64 %113, ptr %14, align 8
  %114 = getelementptr inbounds i8, ptr %111, i64 %112
  store i8 %110, ptr %114, align 1
  br label %115

115:                                              ; preds = %105
  %116 = load i32, ptr %15, align 4
  %117 = sub nsw i32 %116, 4
  store i32 %117, ptr %15, align 4
  br label %102, !llvm.loop !15

118:                                              ; preds = %102
  %119 = load ptr, ptr %12, align 8
  %120 = load i64, ptr %14, align 8
  %121 = trunc i64 %120 to i32
  %122 = call ptr @hb_language_from_string(ptr noundef %119, i32 noundef %121)
  %123 = load ptr, ptr %8, align 8
  store ptr %122, ptr %123, align 8
  %124 = load ptr, ptr %12, align 8
  call void @free(ptr noundef %124) #9
  br label %125

125:                                              ; preds = %118, %50
  br label %126

126:                                              ; preds = %125, %34
  br label %127

127:                                              ; preds = %126, %23
  ret void
}