; Function Attrs: mustprogress uwtable
define hidden void @hb_ot_tags_to_script_and_language(i32 noundef %0, i32 noundef %1, ptr noundef writeonly %2, ptr noundef writeonly %3) local_unnamed_addr #0 {
  %5 = alloca i32, align 4
  %6 = alloca [1 x i32], align 4
  %7 = and i32 %0, 254
  %or.cond.i = icmp eq i32 %7, 50
  br i1 %or.cond.i, label %8, label %20

8:                                                ; preds = %4
  %9 = and i32 %0, -206
  switch i32 %9, label %19 [
    i32 1651402546, label %hb_ot_tag_to_script.exit
    i32 1684370994, label %10
    i32 1735029298, label %11
    i32 1735750194, label %12
    i32 1802396722, label %13
    i32 1835822386, label %14
    i32 1869773106, label %15
    i32 1953328178, label %16
    i32 1952803890, label %17
    i32 1836674354, label %18
  ]

10:                                               ; preds = %8
  br label %hb_ot_tag_to_script.exit

11:                                               ; preds = %8
  br label %hb_ot_tag_to_script.exit

12:                                               ; preds = %8
  br label %hb_ot_tag_to_script.exit

13:                                               ; preds = %8
  br label %hb_ot_tag_to_script.exit

14:                                               ; preds = %8
  br label %hb_ot_tag_to_script.exit

15:                                               ; preds = %8
  br label %hb_ot_tag_to_script.exit

16:                                               ; preds = %8
  br label %hb_ot_tag_to_script.exit

17:                                               ; preds = %8
  br label %hb_ot_tag_to_script.exit

18:                                               ; preds = %8
  br label %hb_ot_tag_to_script.exit

19:                                               ; preds = %8
  br label %hb_ot_tag_to_script.exit

20:                                               ; preds = %4
  switch i32 %0, label %22 [
    i32 1145457748, label %hb_ot_tag_to_script.exit
    i32 1835103336, label %21
  ]

21:                                               ; preds = %20
  br label %hb_ot_tag_to_script.exit

22:                                               ; preds = %20
  %23 = and i32 %0, 65280
  %24 = icmp eq i32 %23, 8192
  %25 = lshr i32 %0, 8
  %26 = and i32 %25, 57088
  %27 = select i1 %24, i32 %26, i32 0
  %.0.i8.i = or disjoint i32 %27, %0
  %28 = and i32 %0, 255
  %29 = icmp eq i32 %28, 32
  %30 = lshr i32 %.0.i8.i, 8
  %31 = and i32 %30, 255
  %32 = select i1 %29, i32 %31, i32 0
  %.0.masked.i.i = and i32 %.0.i8.i, -536870913
  %33 = or i32 %32, %.0.masked.i.i
  br label %hb_ot_tag_to_script.exit

hb_ot_tag_to_script.exit:                         ; preds = %8, %10, %11, %12, %13, %14, %15, %16, %17, %18, %19, %20, %21, %22
  %.0.i = phi i32 [ 1517976186, %19 ], [ 1299803506, %18 ], [ 1415933045, %17 ], [ 1415671148, %16 ], [ 1332902241, %15 ], [ 1298954605, %14 ], [ 1265525857, %13 ], [ 1198879349, %12 ], [ 1198877298, %11 ], [ 1147500129, %10 ], [ 1113943655, %8 ], [ 1517122664, %21 ], [ %33, %22 ], [ 0, %20 ]
  %.not = icmp eq ptr %2, null
  br i1 %.not, label %35, label %34

34:                                               ; preds = %hb_ot_tag_to_script.exit
  store i32 %.0.i, ptr %2, align 4
  br label %35

35:                                               ; preds = %34, %hb_ot_tag_to_script.exit
  %.not48 = icmp eq ptr %3, null
  br i1 %.not48, label %76, label %36

36:                                               ; preds = %35
  store i32 1, ptr %5, align 4
  call void @hb_ot_tags_from_script_and_language(i32 noundef %.0.i, ptr noundef null, ptr noundef nonnull %5, ptr noundef nonnull %6, ptr noundef null, ptr noundef null)
  %37 = call ptr @hb_ot_tag_to_language(i32 noundef %1)
  store ptr %37, ptr %3, align 8
  %38 = load i32, ptr %5, align 4
  %39 = icmp ne i32 %38, 0
  %40 = load i32, ptr %6, align 4
  %.not49 = icmp eq i32 %40, %0
  %or.cond = select i1 %39, i1 %.not49, i1 false
  br i1 %or.cond, label %76, label %41

41:                                               ; preds = %36
  %42 = call ptr @hb_language_to_string(ptr noundef %37)
  %43 = call i64 @strlen(ptr noundef nonnull dereferenceable(1) %42) #10
  %44 = add i64 %43, 16
  %45 = call noalias ptr @malloc(i64 noundef %44) #12
  %.not50 = icmp eq ptr %45, null
  br i1 %.not50, label %46, label %47

46:                                               ; preds = %41
  store ptr null, ptr %3, align 8
  br label %76

47:                                               ; preds = %41
  %.not.i = icmp eq i64 %43, 0
  br i1 %.not.i, label %_ZL9hb_memcpyPvPKvm.exit, label %48

48:                                               ; preds = %47
  call void @llvm.memcpy.p0.p0.i64(ptr nonnull align 1 %45, ptr readonly align 1 %42, i64 %43, i1 false), !alias.scope !49
  br label %_ZL9hb_memcpyPvPKvm.exit

_ZL9hb_memcpyPvPKvm.exit:                         ; preds = %47, %48
  %49 = load i8, ptr %42, align 1
  %.not51 = icmp eq i8 %49, 120
  br i1 %.not51, label %50, label %53

50:                                               ; preds = %_ZL9hb_memcpyPvPKvm.exit
  %51 = getelementptr inbounds i8, ptr %42, i64 1
  %52 = load i8, ptr %51, align 1
  %.not52 = icmp eq i8 %52, 45
  br i1 %.not52, label %57, label %53

53:                                               ; preds = %50, %_ZL9hb_memcpyPvPKvm.exit
  %54 = getelementptr inbounds i8, ptr %45, i64 %43
  store i8 45, ptr %54, align 1
  %55 = add i64 %43, 2
  %56 = getelementptr i8, ptr %54, i64 1
  store i8 120, ptr %56, align 1
  br label %57

57:                                               ; preds = %53, %50
  %.044 = phi i64 [ %55, %53 ], [ %43, %50 ]
  %58 = getelementptr inbounds i8, ptr %45, i64 %.044
  store <4 x i8> <i8 45, i8 104, i8 98, i8 115>, ptr %58, align 1
  %59 = getelementptr i8, ptr %58, i64 4
  store i8 99, ptr %59, align 1
  %60 = add i64 %.044, 6
  %61 = getelementptr i8, ptr %58, i64 5
  store i8 45, ptr %61, align 1
  br label %62

62:                                               ; preds = %57, %62
  %.054 = phi i32 [ 28, %57 ], [ %72, %62 ]
  %.153 = phi i64 [ %60, %57 ], [ %70, %62 ]
  %63 = lshr i32 %0, %.054
  %64 = trunc i32 %63 to i8
  %65 = and i8 %64, 15
  %66 = icmp ult i8 %65, 10
  %67 = or disjoint i8 %65, 48
  %68 = add nuw nsw i8 %65, 87
  %69 = select i1 %66, i8 %67, i8 %68
  %70 = add i64 %.153, 1
  %71 = getelementptr inbounds i8, ptr %45, i64 %.153
  store i8 %69, ptr %71, align 1
  %72 = add nsw i32 %.054, -4
  %.not55 = icmp eq i32 %.054, 0
  br i1 %.not55, label %73, label %62, !llvm.loop !53

73:                                               ; preds = %62
  %74 = trunc i64 %70 to i32
  %75 = call ptr @hb_language_from_string(ptr noundef nonnull %45, i32 noundef %74)
  store ptr %75, ptr %3, align 8
  call void @free(ptr noundef nonnull %45) #11
  br label %76

76:                                               ; preds = %36, %73, %46, %35
  ret void
}